; Function Attrs: nounwind uwtable
define i32 @dtls1_write_bytes(ptr noundef %0, i8 noundef zeroext %1, ptr noundef %2, i64 noundef %3, ptr noundef writeonly captures(none) %4) local_unnamed_addr #0 {
  %6 = icmp ult i64 %3, 16385
  br i1 %6, label %8, label %7, !prof !105

7:                                                ; preds = %5
  tail call void @ERR_new() #7
  tail call void @ERR_set_debug(ptr noundef nonnull @.str, i32 noundef 614, ptr noundef nonnull @__func__.dtls1_write_bytes) #7
  tail call void (ptr, i32, i32, ptr, ...) @ossl_statem_fatal(ptr noundef %0, i32 noundef 80, i32 noundef 786691, ptr noundef null) #7
  br label %11

8:                                                ; preds = %5
  %9 = getelementptr inbounds nuw i8, ptr %0, i64 104
  store i32 1, ptr %9, align 8, !tbaa !84
  %10 = tail call i32 @do_dtls1_write(ptr noundef %0, i8 noundef zeroext %1, ptr noundef %2, i64 noundef %3, ptr noundef %4)
  br label %11

11:                                               ; preds = %8, %7
  %.0 = phi i32 [ %10, %8 ], [ -1, %7 ]
  ret i32 %.0
}